; ModuleID = 'source-C-CXX/42/362.cpp'
source_filename = "source-C-CXX/42/362.cpp"
target datalayout = "e-m:e-p270:32:32-p271:32:32-p272:64:64-i64:64-f80:128-n8:16:32:64-S128"
target triple = "x86_64-pc-linux-gnu"

%"class.std::ios_base::Init" = type { i8 }
%"class.std::basic_istream" = type { i32 (...)**, i64, %"class.std::basic_ios" }
%"class.std::basic_ios" = type { %"class.std::ios_base", %"class.std::basic_ostream"*, i8, i8, %"class.std::basic_streambuf"*, %"class.std::ctype"*, %"class.std::num_put"*, %"class.std::num_get"* }
%"class.std::ios_base" = type { i32 (...)**, i64, i64, i32, i32, i32, %"struct.std::ios_base::_Callback_list"*, %"struct.std::ios_base::_Words", [8 x %"struct.std::ios_base::_Words"], i32, %"struct.std::ios_base::_Words"*, %"class.std::locale" }
%"struct.std::ios_base::_Callback_list" = type { %"struct.std::ios_base::_Callback_list"*, void (i32, %"class.std::ios_base"*, i32)*, i32, i32 }
%"struct.std::ios_base::_Words" = type { i8*, i64 }
%"class.std::locale" = type { %"class.std::locale::_Impl"* }
%"class.std::locale::_Impl" = type { i32, %"class.std::locale::facet"**, i64, %"class.std::locale::facet"**, i8** }
%"class.std::locale::facet" = type <{ i32 (...)**, i32, [4 x i8] }>
%"class.std::basic_ostream" = type { i32 (...)**, %"class.std::basic_ios" }
%"class.std::basic_streambuf" = type { i32 (...)**, i8*, i8*, i8*, i8*, i8*, i8*, %"class.std::locale" }
%"class.std::ctype" = type <{ %"class.std::locale::facet.base", [4 x i8], %struct.__locale_struct*, i8, [7 x i8], i32*, i32*, i16*, i8, [256 x i8], [256 x i8], i8, [6 x i8] }>
%"class.std::locale::facet.base" = type <{ i32 (...)**, i32 }>
%struct.__locale_struct = type { [13 x %struct.__locale_data*], i16*, i32*, i32*, [13 x i8*] }
%struct.__locale_data = type opaque
%"class.std::num_put" = type { %"class.std::locale::facet.base", [4 x i8] }
%"class.std::num_get" = type { %"class.std::locale::facet.base", [4 x i8] }

@_ZStL8__ioinit = internal global %"class.std::ios_base::Init" zeroinitializer, align 1
@__dso_handle = external hidden global i8
@_ZSt3cin = external global %"class.std::basic_istream", align 8
@_ZSt4cout = external global %"class.std::basic_ostream", align 8
@.str = private unnamed_addr constant [2 x i8] c" \00", align 1
@llvm.global_ctors = appending global [1 x { i32, void ()*, i8* }] [{ i32, void ()*, i8* } { i32 65535, void ()* @_GLOBAL__sub_I_362.cpp, i8* null }]

declare void @_ZNSt8ios_base4InitC1Ev(%"class.std::ios_base::Init"* nonnull align 1 dereferenceable(1)) unnamed_addr #0

; Function Attrs: nounwind
declare void @_ZNSt8ios_base4InitD1Ev(%"class.std::ios_base::Init"* nonnull align 1 dereferenceable(1)) unnamed_addr #1

; Function Attrs: nofree nounwind
declare i32 @__cxa_atexit(void (i8*)*, i8*, i8*) local_unnamed_addr #2

; Function Attrs: mustprogress norecurse sspstrong uwtable
define dso_local i32 @main() local_unnamed_addr #3 {
  %1 = alloca i32, align 4
  %2 = bitcast i32* %1 to i8*
  call void @llvm.lifetime.start.p0i8(i64 4, i8* nonnull %2) #8
  %3 = call nonnull align 8 dereferenceable(16) %"class.std::basic_istream"* @_ZNSirsERi(%"class.std::basic_istream"* nonnull align 8 dereferenceable(16) @_ZSt3cin, i32* nonnull align 4 dereferenceable(4) %1)
  %4 = load i32, i32* %1, align 4, !tbaa !5
  %5 = icmp slt i32 %4, 6
  br i1 %5, label %126, label %6

6:                                                ; preds = %0, %120
  %7 = phi i32 [ %125, %120 ], [ 0, %0 ]
  %8 = phi i32 [ %121, %120 ], [ %4, %0 ]
  %9 = phi i32 [ %122, %120 ], [ 3, %0 ]
  %10 = mul nsw i32 %7, -2
  %11 = add i32 %10, -3
  %12 = icmp eq i32 %7, -1
  br i1 %12, label %32, label %13

13:                                               ; preds = %6
  %14 = shl nuw nsw i32 %7, 1
  %15 = add i32 %14, 2
  br label %16

16:                                               ; preds = %16, %13
  %17 = phi i32 [ 0, %13 ], [ %28, %16 ]
  %18 = phi i32 [ 1, %13 ], [ %29, %16 ]
  %19 = phi i32 [ %15, %13 ], [ %30, %16 ]
  %20 = urem i32 %9, %18
  %21 = icmp eq i32 %20, 0
  %22 = zext i1 %21 to i32
  %23 = add nuw nsw i32 %17, %22
  %24 = add nuw nsw i32 %18, 1
  %25 = urem i32 %9, %24
  %26 = icmp eq i32 %25, 0
  %27 = zext i1 %26 to i32
  %28 = add nuw nsw i32 %23, %27
  %29 = add nuw nsw i32 %18, 2
  %30 = add nsw i32 %19, -2
  %31 = icmp eq i32 %30, 0
  br i1 %31, label %32, label %16, !llvm.loop !9

32:                                               ; preds = %6, %16
  %33 = phi i32 [ undef, %6 ], [ %28, %16 ]
  %34 = phi i32 [ 0, %6 ], [ %28, %16 ]
  %35 = phi i32 [ 1, %6 ], [ %29, %16 ]
  %36 = urem i32 %9, %35
  %37 = icmp eq i32 %36, 0
  %38 = zext i1 %37 to i32
  %39 = add nuw nsw i32 %34, %38
  %40 = icmp eq i32 %39, 2
  br i1 %40, label %41, label %120

41:                                               ; preds = %32
  %42 = sub nsw i32 %8, %9
  %43 = icmp slt i32 %42, 1
  br i1 %43, label %81, label %44

44:                                               ; preds = %41
  %45 = add i32 %8, %11
  %46 = and i32 %45, 1
  %47 = sub i32 4, %10
  %48 = icmp eq i32 %8, %47
  br i1 %48, label %67, label %49

49:                                               ; preds = %44
  %50 = and i32 %45, -2
  br label %51

51:                                               ; preds = %51, %49
  %52 = phi i32 [ 0, %49 ], [ %63, %51 ]
  %53 = phi i32 [ 1, %49 ], [ %64, %51 ]
  %54 = phi i32 [ %50, %49 ], [ %65, %51 ]
  %55 = srem i32 %42, %53
  %56 = icmp eq i32 %55, 0
  %57 = zext i1 %56 to i32
  %58 = add nuw nsw i32 %52, %57
  %59 = add nuw i32 %53, 1
  %60 = srem i32 %42, %59
  %61 = icmp eq i32 %60, 0
  %62 = zext i1 %61 to i32
  %63 = add nuw nsw i32 %58, %62
  %64 = add nuw i32 %53, 2
  %65 = add i32 %54, -2
  %66 = icmp eq i32 %65, 0
  br i1 %66, label %67, label %51, !llvm.loop !9

67:                                               ; preds = %51, %44
  %68 = phi i32 [ undef, %44 ], [ %63, %51 ]
  %69 = phi i32 [ 0, %44 ], [ %63, %51 ]
  %70 = phi i32 [ 1, %44 ], [ %64, %51 ]
  %71 = icmp eq i32 %46, 0
  br i1 %71, label %77, label %72

72:                                               ; preds = %67
  %73 = srem i32 %42, %70
  %74 = icmp eq i32 %73, 0
  %75 = zext i1 %74 to i32
  %76 = add nuw nsw i32 %69, %75
  br label %77

77:                                               ; preds = %67, %72
  %78 = phi i32 [ %68, %67 ], [ %76, %72 ]
  %79 = icmp eq i32 %78, 2
  %80 = select i1 %79, i32 %42, i32 0
  br label %81

81:                                               ; preds = %41, %77
  %82 = phi i32 [ 0, %41 ], [ %80, %77 ]
  %83 = icmp eq i32 %42, %82
  br i1 %83, label %84, label %120

84:                                               ; preds = %81
  %85 = call nonnull align 8 dereferenceable(8) %"class.std::basic_ostream"* @_ZNSolsEi(%"class.std::basic_ostream"* nonnull align 8 dereferenceable(8) @_ZSt4cout, i32 %9)
  %86 = call nonnull align 8 dereferenceable(8) %"class.std::basic_ostream"* @_ZSt16__ostream_insertIcSt11char_traitsIcEERSt13basic_ostreamIT_T0_ES6_PKS3_l(%"class.std::basic_ostream"* nonnull align 8 dereferenceable(8) %85, i8* nonnull getelementptr inbounds ([2 x i8], [2 x i8]* @.str, i64 0, i64 0), i64 1)
  %87 = load i32, i32* %1, align 4, !tbaa !5
  %88 = sub nsw i32 %87, %9
  %89 = call nonnull align 8 dereferenceable(8) %"class.std::basic_ostream"* @_ZNSolsEi(%"class.std::basic_ostream"* nonnull align 8 dereferenceable(8) %85, i32 %88)
  %90 = bitcast %"class.std::basic_ostream"* %89 to i8**
  %91 = load i8*, i8** %90, align 8, !tbaa !11
  %92 = getelementptr i8, i8* %91, i64 -24
  %93 = bitcast i8* %92 to i64*
  %94 = load i64, i64* %93, align 8
  %95 = bitcast %"class.std::basic_ostream"* %89 to i8*
  %96 = add nsw i64 %94, 240
  %97 = getelementptr inbounds i8, i8* %95, i64 %96
  %98 = bitcast i8* %97 to %"class.std::ctype"**
  %99 = load %"class.std::ctype"*, %"class.std::ctype"** %98, align 8, !tbaa !13
  %100 = icmp eq %"class.std::ctype"* %99, null
  br i1 %100, label %101, label %102

101:                                              ; preds = %84
  call void @_ZSt16__throw_bad_castv() #9
  unreachable

102:                                              ; preds = %84
  %103 = getelementptr inbounds %"class.std::ctype", %"class.std::ctype"* %99, i64 0, i32 8
  %104 = load i8, i8* %103, align 8, !tbaa !17
  %105 = icmp eq i8 %104, 0
  br i1 %105, label %109, label %106

106:                                              ; preds = %102
  %107 = getelementptr inbounds %"class.std::ctype", %"class.std::ctype"* %99, i64 0, i32 9, i64 10
  %108 = load i8, i8* %107, align 1, !tbaa !19
  br label %115

109:                                              ; preds = %102
  call void @_ZNKSt5ctypeIcE13_M_widen_initEv(%"class.std::ctype"* nonnull align 8 dereferenceable(570) %99)
  %110 = bitcast %"class.std::ctype"* %99 to i8 (%"class.std::ctype"*, i8)***
  %111 = load i8 (%"class.std::ctype"*, i8)**, i8 (%"class.std::ctype"*, i8)*** %110, align 8, !tbaa !11
  %112 = getelementptr inbounds i8 (%"class.std::ctype"*, i8)*, i8 (%"class.std::ctype"*, i8)** %111, i64 6
  %113 = load i8 (%"class.std::ctype"*, i8)*, i8 (%"class.std::ctype"*, i8)** %112, align 8
  %114 = call signext i8 %113(%"class.std::ctype"* nonnull align 8 dereferenceable(570) %99, i8 signext 10)
  br label %115

115:                                              ; preds = %106, %109
  %116 = phi i8 [ %108, %106 ], [ %114, %109 ]
  %117 = call nonnull align 8 dereferenceable(8) %"class.std::basic_ostream"* @_ZNSo3putEc(%"class.std::basic_ostream"* nonnull align 8 dereferenceable(8) %89, i8 signext %116)
  %118 = call nonnull align 8 dereferenceable(8) %"class.std::basic_ostream"* @_ZNSo5flushEv(%"class.std::basic_ostream"* nonnull align 8 dereferenceable(8) %117)
  %119 = load i32, i32* %1, align 4, !tbaa !5
  br label %120

120:                                              ; preds = %32, %81, %115
  %121 = phi i32 [ %8, %32 ], [ %8, %81 ], [ %119, %115 ]
  %122 = add nuw nsw i32 %9, 2
  %123 = sdiv i32 %121, 2
  %124 = icmp sgt i32 %122, %123
  %125 = add i32 %7, 1
  br i1 %124, label %126, label %6, !llvm.loop !20

126:                                              ; preds = %120, %0
  call void @llvm.lifetime.end.p0i8(i64 4, i8* nonnull %2) #8
  ret i32 0
}

; Function Attrs: argmemonly mustprogress nofree nosync nounwind willreturn
declare void @llvm.lifetime.start.p0i8(i64 immarg, i8* nocapture) #4

declare nonnull align 8 dereferenceable(16) %"class.std::basic_istream"* @_ZNSirsERi(%"class.std::basic_istream"* nonnull align 8 dereferenceable(16), i32* nonnull align 4 dereferenceable(4)) local_unnamed_addr #0

; Function Attrs: mustprogress nofree norecurse nosync nounwind readnone sspstrong uwtable willreturn
define dso_local i32 @_Z4findi(i32 %0) local_unnamed_addr #5 {
  %2 = icmp slt i32 %0, 1
  br i1 %2, label %38, label %3

3:                                                ; preds = %1
  %4 = and i32 %0, 1
  %5 = icmp eq i32 %0, 1
  br i1 %5, label %24, label %6

6:                                                ; preds = %3
  %7 = and i32 %0, -2
  br label %8

8:                                                ; preds = %8, %6
  %9 = phi i32 [ 0, %6 ], [ %20, %8 ]
  %10 = phi i32 [ 1, %6 ], [ %21, %8 ]
  %11 = phi i32 [ %7, %6 ], [ %22, %8 ]
  %12 = srem i32 %0, %10
  %13 = icmp eq i32 %12, 0
  %14 = zext i1 %13 to i32
  %15 = add nuw nsw i32 %9, %14
  %16 = add nuw i32 %10, 1
  %17 = srem i32 %0, %16
  %18 = icmp eq i32 %17, 0
  %19 = zext i1 %18 to i32
  %20 = add nuw nsw i32 %15, %19
  %21 = add nuw i32 %10, 2
  %22 = add i32 %11, -2
  %23 = icmp eq i32 %22, 0
  br i1 %23, label %24, label %8, !llvm.loop !9

24:                                               ; preds = %8, %3
  %25 = phi i32 [ undef, %3 ], [ %20, %8 ]
  %26 = phi i32 [ 0, %3 ], [ %20, %8 ]
  %27 = phi i32 [ 1, %3 ], [ %21, %8 ]
  %28 = icmp eq i32 %4, 0
  br i1 %28, label %34, label %29

29:                                               ; preds = %24
  %30 = srem i32 %0, %27
  %31 = icmp eq i32 %30, 0
  %32 = zext i1 %31 to i32
  %33 = add nuw nsw i32 %26, %32
  br label %34

34:                                               ; preds = %24, %29
  %35 = phi i32 [ %25, %24 ], [ %33, %29 ]
  %36 = icmp eq i32 %35, 2
  %37 = select i1 %36, i32 %0, i32 0
  br label %38

38:                                               ; preds = %34, %1
  %39 = phi i32 [ 0, %1 ], [ %37, %34 ]
  ret i32 %39
}

declare nonnull align 8 dereferenceable(8) %"class.std::basic_ostream"* @_ZNSolsEi(%"class.std::basic_ostream"* nonnull align 8 dereferenceable(8), i32) local_unnamed_addr #0

; Function Attrs: argmemonly mustprogress nofree nosync nounwind willreturn
declare void @llvm.lifetime.end.p0i8(i64 immarg, i8* nocapture) #4

declare nonnull align 8 dereferenceable(8) %"class.std::basic_ostream"* @_ZSt16__ostream_insertIcSt11char_traitsIcEERSt13basic_ostreamIT_T0_ES6_PKS3_l(%"class.std::basic_ostream"* nonnull align 8 dereferenceable(8), i8*, i64) local_unnamed_addr #0

declare nonnull align 8 dereferenceable(8) %"class.std::basic_ostream"* @_ZNSo3putEc(%"class.std::basic_ostream"* nonnull align 8 dereferenceable(8), i8 signext) local_unnamed_addr #0

declare nonnull align 8 dereferenceable(8) %"class.std::basic_ostream"* @_ZNSo5flushEv(%"class.std::basic_ostream"* nonnull align 8 dereferenceable(8)) local_unnamed_addr #0

; Function Attrs: noreturn
declare void @_ZSt16__throw_bad_castv() local_unnamed_addr #6

declare void @_ZNKSt5ctypeIcE13_M_widen_initEv(%"class.std::ctype"* nonnull align 8 dereferenceable(570)) local_unnamed_addr #0

; Function Attrs: sspstrong uwtable
define internal void @_GLOBAL__sub_I_362.cpp() #7 section ".text.startup" {
  tail call void @_ZNSt8ios_base4InitC1Ev(%"class.std::ios_base::Init"* nonnull align 1 dereferenceable(1) @_ZStL8__ioinit)
  %1 = tail call i32 @__cxa_atexit(void (i8*)* bitcast (void (%"class.std::ios_base::Init"*)* @_ZNSt8ios_base4InitD1Ev to void (i8*)*), i8* getelementptr inbounds (%"class.std::ios_base::Init", %"class.std::ios_base::Init"* @_ZStL8__ioinit, i64 0, i32 0), i8* nonnull @__dso_handle) #8
  ret void
}


!llvm.module.flags = !{!0, !1, !2, !3}
!llvm.ident = !{!4}

!0 = !{i32 1, !"wchar_size", i32 4}
!1 = !{i32 7, !"PIC Level", i32 2}
!2 = !{i32 7, !"PIE Level", i32 2}
!3 = !{i32 7, !"uwtable", i32 1}
!4 = !{!"clang version 13.0.0"}
!5 = !{!6, !6, i64 0}
!6 = !{!"int", !7, i64 0}
!7 = !{!"omnipotent char", !8, i64 0}
!8 = !{!"Simple C++ TBAA"}
!9 = distinct !{!9, !10}
!10 = !{!"llvm.loop.mustprogress"}
!11 = !{!12, !12, i64 0}
!12 = !{!"vtable pointer", !8, i64 0}
!13 = !{!14, !15, i64 240}
!14 = !{!"_ZTSSt9basic_iosIcSt11char_traitsIcEE", !15, i64 216, !7, i64 224, !16, i64 225, !15, i64 232, !15, i64 240, !15, i64 248, !15, i64 256}
!15 = !{!"any pointer", !7, i64 0}
!16 = !{!"bool", !7, i64 0}
!17 = !{!18, !7, i64 56}
!18 = !{!"_ZTSSt5ctypeIcE", !15, i64 16, !16, i64 24, !15, i64 32, !15, i64 40, !15, i64 48, !7, i64 56, !7, i64 57, !7, i64 313, !7, i64 569}
!19 = !{!7, !7, i64 0}
!20 = distinct !{!20, !10}
